; Function Attrs: nofree nounwind memory(readwrite, argmem: read) uwtable
define noalias noundef ptr @Abc_NtkFanoutCounts(ptr noundef readonly captures(none) %0) local_unnamed_addr #13 {
  %calloc = tail call dereferenceable_or_null(16) ptr @calloc(i64 1, i64 16)
  %2 = getelementptr inbounds nuw i8, ptr %calloc, i64 4
  %3 = getelementptr i8, ptr %0, i64 32
  %.val18 = load ptr, ptr %3, align 8
  %4 = getelementptr i8, ptr %.val18, i64 4
  %.val18.val = load i32, ptr %4, align 4
  %.not.i.i = icmp sgt i32 %.val18.val, 0
  br i1 %.not.i.i, label %.lr.ph.preheader, label %Vec_IntFill.exit

Vec_IntFill.exit:                                 ; preds = %1
  store i32 %.val18.val, ptr %2, align 4
  br label %.critedge

.lr.ph.preheader:                                 ; preds = %1
  %5 = getelementptr inbounds nuw i8, ptr %calloc, i64 8
  %6 = zext nneg i32 %.val18.val to i64
  %7 = shl nuw nsw i64 %6, 2
  %8 = tail call noalias ptr @malloc(i64 noundef %7) #30
  store ptr %8, ptr %5, align 8
  store i32 %.val18.val, ptr %calloc, align 8
  tail call void @llvm.memset.p0.i64(ptr align 4 %8, i8 -1, i64 %7, i1 false)
  store i32 %.val18.val, ptr %2, align 4
  %.phi.trans.insert = getelementptr i8, ptr %.val18, i64 8
  %.val16.val.pre = load ptr, ptr %.phi.trans.insert, align 8
  %9 = zext nneg i32 %.val18.val to i64
  br label %.lr.ph

.lr.ph:                                           ; preds = %.lr.ph.preheader, %19
  %indvars.iv = phi i64 [ 0, %.lr.ph.preheader ], [ %indvars.iv.next, %19 ]
  %10 = getelementptr inbounds nuw ptr, ptr %.val16.val.pre, i64 %indvars.iv
  %11 = load ptr, ptr %10, align 8
  %12 = icmp eq ptr %11, null
  br i1 %12, label %19, label %13

13:                                               ; preds = %.lr.ph
  %14 = getelementptr i8, ptr %11, i64 20
  %.val19 = load i32, ptr %14, align 4
  %15 = and i32 %.val19, 15
  switch i32 %15, label %19 [
    i32 5, label %16
    i32 2, label %16
    i32 7, label %16
  ]

16:                                               ; preds = %13, %13, %13
  %17 = getelementptr i8, ptr %11, i64 44
  %.val15 = load i32, ptr %17, align 4
  %18 = getelementptr inbounds nuw i32, ptr %8, i64 %indvars.iv
  store i32 %.val15, ptr %18, align 4
  br label %19

19:                                               ; preds = %13, %.lr.ph, %16
  %indvars.iv.next = add nuw nsw i64 %indvars.iv, 1
  %20 = icmp samesign ult i64 %indvars.iv.next, %9
  br i1 %20, label %.lr.ph, label %.critedge, !llvm.loop !73

.critedge:                                        ; preds = %19, %Vec_IntFill.exit
  ret ptr %calloc
}